target datalayout = "e-m:e-p270:32:32-p271:32:32-p272:64:64-i64:64-i128:128-f80:128-n8:16:32:64-S128"
target triple = "x86_64-pc-linux-gnu"

%struct._xmlNode = type { ptr, i32, ptr, ptr, ptr, ptr, ptr, ptr, ptr, ptr, ptr, ptr, ptr, ptr, i16, i16 }
%struct._xmlNs = type { ptr, i32, ptr, ptr, ptr, ptr }

; Function Attrs: nounwind uwtable
define internal void @dom_reconcile_ns_internal(ptr noundef %0, ptr noundef %1, ptr noundef %2) #0 {
  %4 = alloca ptr, align 8
  %5 = alloca ptr, align 8
  %6 = alloca ptr, align 8
  %7 = alloca ptr, align 8
  %8 = alloca ptr, align 8
  %9 = alloca ptr, align 8
  %10 = alloca ptr, align 8
  store ptr %0, ptr %4, align 8
  store ptr %1, ptr %5, align 8
  store ptr %2, ptr %6, align 8
  store ptr null, ptr %10, align 8
  %11 = load ptr, ptr %5, align 8
  %12 = getelementptr inbounds %struct._xmlNode, ptr %11, i32 0, i32 12
  %13 = load ptr, ptr %12, align 8
  %14 = icmp ne ptr %13, null
  br i1 %14, label %15, label %74

15:                                               ; preds = %3
  %16 = load ptr, ptr %5, align 8
  %17 = getelementptr inbounds %struct._xmlNode, ptr %16, i32 0, i32 12
  %18 = load ptr, ptr %17, align 8
  store ptr %18, ptr %9, align 8
  br label %19

19:                                               ; preds = %70, %15
  %20 = load ptr, ptr %9, align 8
  %21 = icmp ne ptr %20, null
  br i1 %21, label %22, label %73

22:                                               ; preds = %19
  %23 = load ptr, ptr %9, align 8
  %24 = getelementptr inbounds %struct._xmlNs, ptr %23, i32 0, i32 0
  %25 = load ptr, ptr %24, align 8
  store ptr %25, ptr %8, align 8
  %26 = load ptr, ptr %9, align 8
  %27 = getelementptr inbounds %struct._xmlNs, ptr %26, i32 0, i32 2
  %28 = load ptr, ptr %27, align 8
  %29 = icmp ne ptr %28, null
  br i1 %29, label %30, label %70

30:                                               ; preds = %22
  %31 = load ptr, ptr %4, align 8
  %32 = load ptr, ptr %6, align 8
  %33 = load ptr, ptr %9, align 8
  %34 = getelementptr inbounds %struct._xmlNs, ptr %33, i32 0, i32 2
  %35 = load ptr, ptr %34, align 8
  %36 = call ptr @xmlSearchNsByHref(ptr noundef %31, ptr noundef %32, ptr noundef %35)
  store ptr %36, ptr %7, align 8
  %37 = icmp ne ptr %36, null
  br i1 %37, label %38, label %69

38:                                               ; preds = %30
  %39 = load ptr, ptr %9, align 8
  %40 = getelementptr inbounds %struct._xmlNs, ptr %39, i32 0, i32 3
  %41 = load ptr, ptr %40, align 8
  %42 = icmp eq ptr %41, null
  br i1 %42, label %52, label %43

43:                                               ; preds = %38
  %44 = load ptr, ptr %7, align 8
  %45 = getelementptr inbounds %struct._xmlNs, ptr %44, i32 0, i32 3
  %46 = load ptr, ptr %45, align 8
  %47 = load ptr, ptr %9, align 8
  %48 = getelementptr inbounds %struct._xmlNs, ptr %47, i32 0, i32 3
  %49 = load ptr, ptr %48, align 8
  %50 = call i32 @xmlStrEqual(ptr noundef %46, ptr noundef %49)
  %51 = icmp ne i32 %50, 0
  br i1 %51, label %52, label %69

52:                                               ; preds = %43, %38
  %53 = load ptr, ptr %9, align 8
  %54 = getelementptr inbounds %struct._xmlNs, ptr %53, i32 0, i32 0
  store ptr null, ptr %54, align 8
  %55 = load ptr, ptr %10, align 8
  %56 = icmp eq ptr %55, null
  br i1 %56, label %57, label %61

57:                                               ; preds = %52
  %58 = load ptr, ptr %8, align 8
  %59 = load ptr, ptr %5, align 8
  %60 = getelementptr inbounds %struct._xmlNode, ptr %59, i32 0, i32 12
  store ptr %58, ptr %60, align 8
  br label %65

61:                                               ; preds = %52
  %62 = load ptr, ptr %8, align 8
  %63 = load ptr, ptr %10, align 8
  %64 = getelementptr inbounds %struct._xmlNs, ptr %63, i32 0, i32 0
  store ptr %62, ptr %64, align 8
  br label %65

65:                                               ; preds = %61, %57
  %66 = load ptr, ptr %4, align 8
  %67 = load ptr, ptr %9, align 8
  call void @php_libxml_set_old_ns(ptr noundef %66, ptr noundef %67)
  %68 = load ptr, ptr %10, align 8
  store ptr %68, ptr %9, align 8
  br label %69

69:                                               ; preds = %65, %43, %30
  br label %70

70:                                               ; preds = %69, %22
  %71 = load ptr, ptr %9, align 8
  store ptr %71, ptr %10, align 8
  %72 = load ptr, ptr %8, align 8
  store ptr %72, ptr %9, align 8
  br label %19

73:                                               ; preds = %19
  br label %74

74:                                               ; preds = %73, %3
  ret void
}

; Function Attrs: nounwind uwtable
define internal void @dom_reconcile_ns_list_internal(ptr noundef %0, ptr noundef %1, ptr noundef %2, ptr noundef %3) #0 {
  %5 = alloca ptr, align 8
  %6 = alloca ptr, align 8
  %7 = alloca ptr, align 8
  %8 = alloca ptr, align 8
  store ptr %0, ptr %5, align 8
  store ptr %1, ptr %6, align 8
  store ptr %2, ptr %7, align 8
  store ptr %3, ptr %8, align 8
  %9 = load ptr, ptr %6, align 8
  %10 = icmp ne ptr %9, null
  call void @llvm.assume(i1 %10)
  br label %11

11:                                               ; preds = %39, %4
  %12 = load ptr, ptr %6, align 8
  %13 = getelementptr inbounds %struct._xmlNode, ptr %12, i32 0, i32 1
  %14 = load i32, ptr %13, align 8
  %15 = icmp eq i32 %14, 1
  br i1 %15, label %16, label %34

16:                                               ; preds = %11
  %17 = load ptr, ptr %5, align 8
  %18 = load ptr, ptr %6, align 8
  %19 = load ptr, ptr %8, align 8
  call void @dom_reconcile_ns_internal(ptr noundef %17, ptr noundef %18, ptr noundef %19)
  %20 = load ptr, ptr %6, align 8
  %21 = getelementptr inbounds %struct._xmlNode, ptr %20, i32 0, i32 3
  %22 = load ptr, ptr %21, align 8
  %23 = icmp ne ptr %22, null
  br i1 %23, label %24, label %33

24:                                               ; preds = %16
  %25 = load ptr, ptr %5, align 8
  %26 = load ptr, ptr %6, align 8
  %27 = getelementptr inbounds %struct._xmlNode, ptr %26, i32 0, i32 3
  %28 = load ptr, ptr %27, align 8
  %29 = load ptr, ptr %6, align 8
  %30 = getelementptr inbounds %struct._xmlNode, ptr %29, i32 0, i32 4
  %31 = load ptr, ptr %30, align 8
  %32 = load ptr, ptr %8, align 8
  call void @dom_reconcile_ns_list_internal(ptr noundef %25, ptr noundef %28, ptr noundef %31, ptr noundef %32)
  br label %33

33:                                               ; preds = %24, %16
  br label %34

34:                                               ; preds = %33, %11
  %35 = load ptr, ptr %6, align 8
  %36 = load ptr, ptr %7, align 8
  %37 = icmp eq ptr %35, %36
  br i1 %37, label %38, label %39

38:                                               ; preds = %34
  br label %43

39:                                               ; preds = %34
  %40 = load ptr, ptr %6, align 8
  %41 = getelementptr inbounds %struct._xmlNode, ptr %40, i32 0, i32 6
  %42 = load ptr, ptr %41, align 8
  store ptr %42, ptr %6, align 8
  br label %11

43:                                               ; preds = %38
  ret void
}