; Function Attrs: nounwind uwtable
define internal fastcc void @dom_reconcile_ns_list_internal(ptr noundef %0, ptr noundef %1, ptr noundef readnone %2, ptr noundef %3) unnamed_addr #1 {
  %5 = icmp ne ptr %1, null
  tail call void @llvm.assume(i1 %5)
  br label %6

6:                                                ; preds = %36, %4
  %.0 = phi ptr [ %1, %4 ], [ %38, %36 ]
  %7 = getelementptr inbounds i8, ptr %.0, i64 8
  %8 = load i32, ptr %7, align 8
  %9 = icmp eq i32 %8, 1
  br i1 %9, label %10, label %34

10:                                               ; preds = %6
  %11 = getelementptr inbounds i8, ptr %.0, i64 96
  %12 = load ptr, ptr %11, align 8
  %.not.i = icmp eq ptr %12, null
  br i1 %.not.i, label %dom_reconcile_ns_internal.exit, label %.preheader.i

.preheader.i:                                     ; preds = %10, %28
  %.032.i = phi ptr [ %.1.i, %28 ], [ null, %10 ]
  %.02231.i = phi ptr [ %13, %28 ], [ %12, %10 ]
  %13 = load ptr, ptr %.02231.i, align 8
  %14 = getelementptr inbounds i8, ptr %.02231.i, i64 16
  %15 = load ptr, ptr %14, align 8
  %.not28.i = icmp eq ptr %15, null
  br i1 %.not28.i, label %28, label %16

16:                                               ; preds = %.preheader.i
  %17 = tail call ptr @xmlSearchNsByHref(ptr noundef %0, ptr noundef %3, ptr noundef nonnull %15) #16
  %.not29.i = icmp eq ptr %17, null
  br i1 %.not29.i, label %28, label %18

18:                                               ; preds = %16
  %19 = getelementptr inbounds i8, ptr %.02231.i, i64 24
  %20 = load ptr, ptr %19, align 8
  %21 = icmp eq ptr %20, null
  br i1 %21, label %26, label %22

22:                                               ; preds = %18
  %23 = getelementptr inbounds i8, ptr %17, i64 24
  %24 = load ptr, ptr %23, align 8
  %25 = tail call i32 @xmlStrEqual(ptr noundef %24, ptr noundef nonnull %20) #16
  %.not30.i = icmp eq i32 %25, 0
  br i1 %.not30.i, label %28, label %26

26:                                               ; preds = %22, %18
  store ptr null, ptr %.02231.i, align 8
  %27 = icmp eq ptr %.032.i, null
  %..032.i = select i1 %27, ptr %11, ptr %.032.i
  store ptr %13, ptr %..032.i, align 8
  tail call void @php_libxml_set_old_ns(ptr noundef %0, ptr noundef nonnull %.02231.i) #16
  br label %28

28:                                               ; preds = %26, %22, %16, %.preheader.i
  %.1.i = phi ptr [ %.032.i, %26 ], [ %.02231.i, %22 ], [ %.02231.i, %16 ], [ %.02231.i, %.preheader.i ]
  %.not27.i = icmp eq ptr %13, null
  br i1 %.not27.i, label %dom_reconcile_ns_internal.exit, label %.preheader.i

dom_reconcile_ns_internal.exit:                   ; preds = %28, %10
  %29 = getelementptr inbounds i8, ptr %.0, i64 24
  %30 = load ptr, ptr %29, align 8
  %.not = icmp eq ptr %30, null
  br i1 %.not, label %34, label %31

31:                                               ; preds = %dom_reconcile_ns_internal.exit
  %32 = getelementptr inbounds i8, ptr %.0, i64 32
  %33 = load ptr, ptr %32, align 8
  tail call fastcc void @dom_reconcile_ns_list_internal(ptr noundef %0, ptr noundef nonnull %30, ptr noundef %33, ptr noundef %3)
  br label %34

34:                                               ; preds = %dom_reconcile_ns_internal.exit, %31, %6
  %35 = icmp eq ptr %.0, %2
  br i1 %35, label %39, label %36

36:                                               ; preds = %34
  %37 = getelementptr inbounds i8, ptr %.0, i64 48
  %38 = load ptr, ptr %37, align 8
  br label %6

39:                                               ; preds = %34
  ret void
}